; Function Attrs: nounwind uwtable
define internal void @BZ2Decompressor_dealloc(ptr noundef %0) #0 {
  %2 = getelementptr inbounds nuw i8, ptr %0, i64 120
  %3 = load ptr, ptr %2, align 8, !tbaa !56
  %.not = icmp eq ptr %3, null
  br i1 %.not, label %5, label %4

4:                                                ; preds = %1
  tail call void @PyMem_Free(ptr noundef nonnull %3) #7
  br label %5

5:                                                ; preds = %4, %1
  %6 = getelementptr inbounds nuw i8, ptr %0, i64 16
  %7 = tail call i32 @BZ2_bzDecompressEnd(ptr noundef nonnull %6) #7
  %8 = getelementptr inbounds nuw i8, ptr %0, i64 104
  %9 = load ptr, ptr %8, align 8, !tbaa !30
  %.not17 = icmp eq ptr %9, null
  br i1 %.not17, label %Py_DECREF.exit20, label %10

10:                                               ; preds = %5
  store ptr null, ptr %8, align 8, !tbaa !30
  %11 = load i32, ptr %9, align 8, !tbaa !11
  %.not.i19 = icmp sgt i32 %11, -1
  br i1 %.not.i19, label %12, label %Py_DECREF.exit20

12:                                               ; preds = %10
  %13 = add nsw i32 %11, -1
  store i32 %13, ptr %9, align 8, !tbaa !11
  %14 = icmp eq i32 %13, 0
  br i1 %14, label %15, label %Py_DECREF.exit20

15:                                               ; preds = %12
  tail call void @_Py_Dealloc(ptr noundef nonnull %9) #7
  br label %Py_DECREF.exit20

Py_DECREF.exit20:                                 ; preds = %15, %12, %10, %5
  %16 = getelementptr inbounds nuw i8, ptr %0, i64 144
  %17 = load ptr, ptr %16, align 8, !tbaa !58
  %.not18 = icmp eq ptr %17, null
  br i1 %.not18, label %19, label %18

18:                                               ; preds = %Py_DECREF.exit20
  tail call void @PyThread_free_lock(ptr noundef nonnull %17) #7
  br label %19

19:                                               ; preds = %18, %Py_DECREF.exit20
  %20 = getelementptr i8, ptr %0, i64 8
  %.val = load ptr, ptr %20, align 8, !tbaa !18
  %21 = getelementptr inbounds nuw i8, ptr %.val, i64 320
  %22 = load ptr, ptr %21, align 8, !tbaa !19
  tail call void %22(ptr noundef nonnull %0) #7
  %23 = load i32, ptr %.val, align 8, !tbaa !11
  %.not.i = icmp sgt i32 %23, -1
  br i1 %.not.i, label %24, label %Py_DECREF.exit

24:                                               ; preds = %19
  %25 = add nsw i32 %23, -1
  store i32 %25, ptr %.val, align 8, !tbaa !11
  %26 = icmp eq i32 %25, 0
  br i1 %26, label %27, label %Py_DECREF.exit

27:                                               ; preds = %24
  tail call void @_Py_Dealloc(ptr noundef nonnull %.val) #7
  br label %Py_DECREF.exit

Py_DECREF.exit:                                   ; preds = %19, %24, %27
  ret void
}